ccopy_reg
_reconstructor
p0
(cutil
Counter
p1
c__builtin__
dict
p2
(dp3
S'deltaToEnemy0'
p4
F-0.3335922257985206
sS'numActions'
p5
F26.292119951422517
sS'enemyPosConfidence1'
p6
F-0.01928256551668468
sS'enemyPosConfidence0'
p7
F-0.2077798304827346
sS'eatsFood'
p8
F0.0002730108872422491
sS'getsEaten'
p9
F-0.012979539158646677
sS'numFoodDefending'
p10
F208.12872285743492
sS'eatsCapsule'
p11
F0.001258560086732711
sS'newManhattanDistToTeammate'
p12
F-27.839914001052875
sS'newDistToFood'
p13
F-77.48386274996751
sS'scoreChange'
p14
F-5.78465607384761e-05
sS'mazeDistToEnemy0'
p15
F-23.979767130124348
sS'mazeDistToEnemy1'
p16
F-27.761608060749737
sS'eatsOpponent'
p17
F0.0006087394087279182
sS'score'
p18
F42.207462891703685
sS'newMazeDistToTeammate'
p19
F-41.09600255444052
sS'wins'
p20
F0.004490612905460996
sS'numFoodLeft'
p21
F-179.2532713366378
sS'deltaToEnemy1'
p22
F-0.38856035935980066
sS'enemyIsGhost0'
p23
F-0.9728069956113228
sS'enemyIsGhost1'
p24
F-0.7230704987506819
stp25
Rp26
.