ccopy_reg
_reconstructor
p0
(cutil
Counter
p1
c__builtin__
dict
p2
(dp3
S'deltaToEnemy0'
p4
F-0.23936967462461461
sS'numActions'
p5
F24.763130642028194
sS'enemyPosConfidence1'
p6
F-0.46281035216494143
sS'enemyPosConfidence0'
p7
F-0.69221411585972
sS'eatsFood'
p8
F-0.00029489833015101604
sS'getsEaten'
p9
F-0.009626518494795226
sS'numFoodDefending'
p10
F189.94723097365684
sS'eatsCapsule'
p11
F0.000911881371310732
sS'newManhattanDistToTeammate'
p12
F-42.07019365003282
sS'newDistToFood'
p13
F-52.42152078731953
sS'scoreChange'
p14
F-0.0011469719580913488
sS'mazeDistToEnemy0'
p15
F-26.292340502850703
sS'mazeDistToEnemy1'
p16
F-11.536861689434861
sS'eatsOpponent'
p17
F0.00047748478425862855
sS'score'
p18
F40.84879793751711
sS'newMazeDistToTeammate'
p19
F-62.79428091851692
sS'wins'
p20
F0.0029111603311062547
sS'numFoodLeft'
p21
F-200.71900593665822
sS'deltaToEnemy1'
p22
F-0.24087868667614942
sS'enemyIsGhost0'
p23
F-2.0684607078012784
sS'enemyIsGhost1'
p24
F-1.854568642852035
stp25
Rp26
.