ccopy_reg
_reconstructor
p0
(cutil
Counter
p1
c__builtin__
dict
p2
(dp3
S'deltaToEnemy0'
p4
F-0.2987861000205097
sS'numActions'
p5
F-21.946970682935664
sS'enemyPosConfidence1'
p6
F0.95827342606211
sS'enemyPosConfidence0'
p7
F0.7994931083053168
sS'eatsFood'
p8
F-0.003321397624912224
sS'getsEaten'
p9
F-0.0001385783140456556
sS'numFoodDefending'
p10
F202.5922488003371
sS'eatsCapsule'
p11
F-0.0004196864195369899
sS'newManhattanDistToTeammate'
p12
F61.681481976772425
sS'newDistToFood'
p13
F29.930642793118533
sS'scoreChange'
p14
F0.0021425463290291225
sS'mazeDistToEnemy0'
p15
F35.59245958641752
sS'mazeDistToEnemy1'
p16
F-13.366724053272701
sS'eatsOpponent'
p17
F-0.0006436213539141988
sS'score'
p18
F46.366917093786405
sS'newMazeDistToTeammate'
p19
F86.96425929873173
sS'numFoodLeft'
p20
F-197.05595796976746
sS'deltaToEnemy1'
p21
F-0.3019415352420484
sS'enemyIsGhost0'
p22
F5.867373634583455
sS'enemyIsGhost1'
p23
F4.500893015316055
stp24
Rp25
.