ccopy_reg
_reconstructor
p0
(cutil
Counter
p1
c__builtin__
dict
p2
(dp3
S'deltaToEnemy0'
p4
F-0.4778719868268035
sS'numActions'
p5
F-22.824487266252557
sS'enemyPosConfidence1'
p6
F0.9733975744195349
sS'enemyPosConfidence0'
p7
F0.8394444323115053
sS'eatsFood'
p8
F-1.8090569831546686e-05
sS'getsEaten'
p9
F-8.936259592624192e-05
sS'numFoodDefending'
p10
F201.0774082514357
sS'eatsCapsule'
p11
F-0.00034055926134000047
sS'newManhattanDistToTeammate'
p12
F62.27947731115741
sS'newDistToFood'
p13
F21.41219601385463
sS'scoreChange'
p14
F0.00013012148398944918
sS'mazeDistToEnemy0'
p15
F30.322649410058993
sS'mazeDistToEnemy1'
p16
F-2.7504109491073927
sS'eatsOpponent'
p17
F-0.0005766045779593119
sS'score'
p18
F47.00574737421933
sS'newMazeDistToTeammate'
p19
F87.90296137699426
sS'numFoodLeft'
p20
F-199.8817050060906
sS'deltaToEnemy1'
p21
F-0.4194421619012197
sS'enemyIsGhost0'
p22
F6.090838009447892
sS'enemyIsGhost1'
p23
F4.6334618409017
stp24
Rp25
.