ccopy_reg
_reconstructor
p0
(cutil
Counter
p1
c__builtin__
dict
p2
(dp3
S'enemyPosConfidence1'
p4
F0.8190529721426418
sS'enemyPosConfidence0'
p5
F0.6510645175802443
sS'myY'
p6
F-2.6780343791083454
sS'myX'
p7
F-2.1829978745237075
sS'newDistToFood'
p8
F13.82302707469397
sS'scoreChange'
p9
F0.00013012148398944918
sS'mazeDistToEnemy0'
p10
F14.294919731818332
sS'mazeDistToEnemy1'
p11
F-17.434544482071605
sS'score'
p12
F47.00411988962229
sS'newMazeDistToTeammate'
p13
F76.20224487950217
sS'enemyIsGhost0'
p14
F5.797873740885936
sS'enemyIsGhost1'
p15
F4.348859611969858
sS'numFoodDefending'
p16
F192.33140758598842
sS'enemyCarrying1'
p17
F-0.001092818581458604
sS'enemyCarrying0'
p18
F-0.00157489528860166
sS'teammateY'
p19
F-2.6780343791083454
sS'teammateX'
p20
F-2.1829978745237075
sS'eatsFood'
p21
F-0.0009029424131618915
sS'getsEaten'
p22
F-0.00023451197706395412
sS'numCarrying'
p23
F-0.06520770391688847
sS'eatsCapsule'
p24
F-0.00041647269493192584
sS'newManhattanDistToTeammate'
p25
F54.691258425123664
sS'numFoodLeft'
p26
F-208.51823773867258
sS'enemyX1'
p27
F-8.533364339016707
sS'enemyX0'
p28
F-8.84376826521032
sS'enemyY0'
p29
F-1.4580839456403603
sS'eatsOpponent'
p30
F-0.0006129885529973356
sS'numActions'
p31
F-23.558882612331406
sS'enemyY1'
p32
F-1.501271793310289
sS'teammateNumCarrying'
p33
F-0.03957173536452739
sS'deltaToEnemy0'
p34
F-0.5472250929476732
sS'deltaToEnemy1'
p35
F-0.48858403272023715
stp36
Rp37
.