ccopy_reg
_reconstructor
p0
(cutil
Counter
p1
c__builtin__
dict
p2
(dp3
S'enemyPosConfidence1'
p4
F-0.5231902903062691
sS'enemyPosConfidence0'
p5
F-0.5392435542463121
sS'myY'
p6
F4.40051841613151
sS'myX'
p7
F18.543031169618494
sS'newDistToFood'
p8
F-26.078052328693435
sS'enemyY1'
p9
F5.9586713370179805
sS'mazeDistToEnemy0'
p10
F-6.843956123697157
sS'mazeDistToEnemy1'
p11
F19.316918917120827
sS'score'
p12
F40.54358948249508
sS'newMazeDistToTeammate'
p13
F-59.750760853299745
sS'enemyIsGhost0'
p14
F-1.9938074789012667
sS'enemyIsGhost1'
p15
F-1.3367170174949972
sS'numFoodDefending'
p16
F195.3065086681622
sS'numFoodLeft'
p17
F-182.28331601306962
sS'enemyCarrying1'
p18
F0.007351271227493614
sS'enemyCarrying0'
p19
F12.768023929810393
sS'teammateY'
p20
F4.40051841613151
sS'teammateX'
p21
F18.543031169618494
sS'eatsFood'
p22
F-0.00029629324035656873
sS'getsEaten'
p23
F-0.009685189392625112
sS'numCarrying'
p24
F0.002524931527754473
sS'eatsCapsule'
p25
F0.0009199146399011971
sS'newManhattanDistToTeammate'
p26
F-39.53210880764538
sS'wins'
p27
F0.0029111603311062547
sS'enemyX1'
p28
F7.317564820812417
sS'enemyX0'
p29
F15.138619444119536
sS'enemyY0'
p30
F5.1249574249125205
sS'eatsOpponent'
p31
F0.006196361122953276
sS'numActions'
p32
F26.684994426016814
sS'scoreChange'
p33
F-0.0011469719580913488
sS'teammateNumCarrying'
p34
F0.0032342752488022718
sS'deltaToEnemy0'
p35
F-0.2598433475930747
sS'deltaToEnemy1'
p36
F-0.2617492417659574
stp37
Rp38
.