ccopy_reg
_reconstructor
p0
(cutil
Counter
p1
c__builtin__
dict
p2
(dp3
S'deltaToEnemy0'
p4
F0.22176052367414376
sS'enemyPosConfidence1'
p5
F-3.599974405440497
sS'enemyPosConfidence0'
p6
F-3.8926573616417097
sS'eatsFood'
p7
F-0.01795218618482908
sS'getsEaten'
p8
F-0.00022031780566179207
sS'numFoodDefending'
p9
F47.40902092707763
sS'eatsCapsule'
p10
F0.0
sS'newManhattanDistToTeammate'
p11
F-120.759736465621
sS'newDistToFood'
p12
F-192.08604916226966
sS'scoreChange'
p13
F-0.0011469719580913488
sS'mazeDistToEnemy0'
p14
F-290.41977151799324
sS'mazeDistToEnemy1'
p15
F-279.2812851643771
sS'eatsOpponent'
p16
F-0.00019204095103775258
sS'score'
p17
F24.72309771038031
sS'newMazeDistToTeammate'
p18
F-171.00708724203085
sS'numFoodLeft'
p19
F-318.35886380325485
sS'deltaToEnemy1'
p20
F0.2338642263174688
sS'enemyIsGhost0'
p21
F-8.602061260134445
sS'enemyIsGhost1'
p22
F-8.536421849602164
stp23
Rp24
.