ccopy_reg
_reconstructor
p0
(cutil
Counter
p1
c__builtin__
dict
p2
(dp3
S'deltaToEnemy0'
p4
F-0.29622947212008216
sS'enemyPosConfidence1'
p5
F3.908124475269113
sS'enemyPosConfidence0'
p6
F3.8451978343444413
sS'eatsFood'
p7
F0.002953249575590294
sS'getsEaten'
p8
F4.113585349176749e-05
sS'numFoodDefending'
p9
F319.51485634040324
sS'eatsCapsule'
p10
F-5.0205137893911084e-05
sS'newManhattanDistToTeammate'
p11
F156.68623551337245
sS'newDistToFood'
p12
F303.3167376332178
sS'scoreChange'
p13
F0.00013012148398944918
sS'mazeDistToEnemy0'
p14
F336.44231474543056
sS'mazeDistToEnemy1'
p15
F299.3526226245543
sS'eatsOpponent'
p16
F4.170131969388462e-05
sS'score'
p17
F24.39286244943079
sS'newMazeDistToTeammate'
p18
F233.92441432787263
sS'numFoodLeft'
p19
F-44.63971292618543
sS'deltaToEnemy1'
p20
F-0.23999901720765618
sS'enemyIsGhost0'
p21
F10.029917277536352
sS'enemyIsGhost1'
p22
F8.530251567402974
stp23
Rp24
.