ccopy_reg
_reconstructor
p0
(cutil
Counter
p1
c__builtin__
dict
p2
(dp3
S'deltaToEnemy0'
p4
F0.21076911429245287
sS'enemyPosConfidence1'
p5
F-3.345267704934741
sS'enemyPosConfidence0'
p6
F-3.6281576383815963
sS'eatsFood'
p7
F-0.018178842985235318
sS'getsEaten'
p8
F-0.0005584920097655429
sS'numFoodDefending'
p9
F56.47007056889048
sS'eatsCapsule'
p10
F-3.978276512360422e-05
sS'newManhattanDistToTeammate'
p11
F-111.04406556178253
sS'newDistToFood'
p12
F-230.96683640603246
sS'scoreChange'
p13
F-5.78465607384761e-05
sS'mazeDistToEnemy0'
p14
F-311.112776630446
sS'mazeDistToEnemy1'
p15
F-320.44662828413817
sS'eatsOpponent'
p16
F-0.00022274944274838142
sS'score'
p17
F24.79140835753087
sS'newMazeDistToTeammate'
p18
F-155.8465442740991
sS'numFoodLeft'
p19
F-304.71341486128875
sS'deltaToEnemy1'
p20
F0.17889594045442359
sS'enemyIsGhost0'
p21
F-7.9448105165821366
sS'enemyIsGhost1'
p22
F-7.8612867806608975
stp23
Rp24
.