ccopy_reg
_reconstructor
p0
(cutil
Counter
p1
c__builtin__
dict
p2
(dp3
S'enemyPosConfidence1'
p4
F-0.007314277492925143
sS'enemyPosConfidence0'
p5
F-0.07668766970271877
sS'myY'
p6
F3.908862420513711
sS'myX'
p7
F16.70036453355139
sS'newDistToFood'
p8
F-49.849702185035355
sS'enemyY1'
p9
F5.0350943876034515
sS'mazeDistToEnemy0'
p10
F-4.201810745113789
sS'mazeDistToEnemy1'
p11
F8.238701634172873
sS'score'
p12
F41.89913578875746
sS'newMazeDistToTeammate'
p13
F-38.95760519204495
sS'enemyIsGhost0'
p14
F-0.973535158980611
sS'enemyIsGhost1'
p15
F-0.24422504404971537
sS'numFoodDefending'
p16
F210.88661275743007
sS'numFoodLeft'
p17
F-163.05477558595123
sS'enemyCarrying1'
p18
F-0.0006807558624994712
sS'enemyCarrying0'
p19
F13.134045171062052
sS'teammateY'
p20
F3.908862420513711
sS'teammateX'
p21
F16.70036453355139
sS'eatsFood'
p22
F0.0001883768131559733
sS'getsEaten'
p23
F-0.013209647881578756
sS'numCarrying'
p24
F0.0036455058460019116
sS'eatsCapsule'
p25
F0.0012632071122605226
sS'newManhattanDistToTeammate'
p26
F-26.015752501631724
sS'wins'
p27
F0.004490612905460996
sS'enemyX1'
p28
F5.532485070506137
sS'enemyX0'
p29
F14.766313549178129
sS'enemyY0'
p30
F4.513690135791363
sS'eatsOpponent'
p31
F0.009779777741462218
sS'numActions'
p32
F27.903421947606187
sS'scoreChange'
p33
F-5.78465607384761e-05
sS'teammateNumCarrying'
p34
F0.00022562494414374014
sS'deltaToEnemy0'
p35
F-0.341079057584363
sS'deltaToEnemy1'
p36
F-0.39553516193298194
stp37
Rp38
.