ccopy_reg
_reconstructor
p0
(cutil
Counter
p1
c__builtin__
dict
p2
(dp3
S'enemyPosConfidence1'
p4
F0.7879142412621689
sS'enemyPosConfidence0'
p5
F0.5877601621581225
sS'myY'
p6
F-1.7621321724121952
sS'myX'
p7
F-1.4529992471013458
sS'newDistToFood'
p8
F22.50790943497578
sS'scoreChange'
p9
F0.0021425463290291225
sS'mazeDistToEnemy0'
p10
F20.19765346540811
sS'mazeDistToEnemy1'
p11
F-26.82806627482154
sS'score'
p12
F46.36173345406867
sS'newMazeDistToTeammate'
p13
F75.2080501129393
sS'enemyIsGhost0'
p14
F5.5941972770218005
sS'enemyIsGhost1'
p15
F4.242047632970246
sS'numFoodDefending'
p16
F194.84017395137604
sS'enemyCarrying1'
p17
F-0.0010840364024744169
sS'enemyCarrying0'
p18
F-0.0009040284138458051
sS'teammateY'
p19
F-1.7621321724121952
sS'teammateX'
p20
F-1.4529992471013458
sS'eatsFood'
p21
F-0.003694236373915439
sS'getsEaten'
p22
F-0.0002444206762353417
sS'numCarrying'
p23
F-0.03231662104410232
sS'eatsCapsule'
p24
F-0.0004442818463742124
sS'newManhattanDistToTeammate'
p25
F53.89899008507499
sS'numFoodLeft'
p26
F-204.69213066107034
sS'enemyX1'
p27
F-7.756216506980381
sS'enemyX0'
p28
F-8.260998742352168
sS'enemyY0'
p29
F-0.9847421390288134
sS'eatsOpponent'
p30
F-0.0006537481339307753
sS'numActions'
p31
F-22.529978983599978
sS'enemyY1'
p32
F-0.9600758237289645
sS'teammateNumCarrying'
p33
F-0.07781396891381892
sS'deltaToEnemy0'
p34
F-0.3957818795774404
sS'deltaToEnemy1'
p35
F-0.3990461913576816
stp36
Rp37
.