ccopy_reg
_reconstructor
p0
(cutil
Counter
p1
c__builtin__
dict
p2
(dp3
S'deltaToEnemy0'
p4
F-0.13187134329153194
sS'enemyPosConfidence1'
p5
F3.7609954919756268
sS'enemyPosConfidence0'
p6
F3.6972874944947587
sS'eatsFood'
p7
F0.00047147285167698573
sS'getsEaten'
p8
F8.641759382686894e-05
sS'numFoodDefending'
p9
F315.79812372112167
sS'eatsCapsule'
p10
F0.0
sS'newManhattanDistToTeammate'
p11
F152.85431730820025
sS'newDistToFood'
p12
F294.62656214337153
sS'scoreChange'
p13
F0.0021425463290291225
sS'mazeDistToEnemy0'
p14
F329.3048165543259
sS'mazeDistToEnemy1'
p15
F276.8906113169212
sS'eatsOpponent'
p16
F3.1057421169436794e-05
sS'score'
p17
F24.540496563434793
sS'newMazeDistToTeammate'
p18
F228.64572623949047
sS'numFoodLeft'
p19
F-48.43555090853533
sS'deltaToEnemy1'
p20
F-0.13896317734760755
sS'enemyIsGhost0'
p21
F9.641977195155677
sS'enemyIsGhost1'
p22
F8.227297566487076
stp23
Rp24
.